target datalayout = "e-m:e-p270:32:32-p271:32:32-p272:64:64-i64:64-i128:128-f80:128-n8:16:32:64-S128"
target triple = "x86_64-pc-linux-gnu"

%struct._packet_info = type { ptr, ptr, i32, i32, %struct.nstime_t, %struct.nstime_t, %struct.nstime_t, i8, ptr, ptr, ptr, ptr, %struct._address, %struct._address, %struct._address, %struct._address, %struct._address, %struct._address, i32, ptr, i8, [3 x i8], %struct.anon, i32, i32, i32, i32, ptr, i8, ptr, ptr, i16, i16, i32, i32, i16, i32, i32, ptr, ptr, ptr, i8, i8, i16, i16, i16, i32, i16, i16, ptr, ptr, ptr, ptr, ptr, i32, i32 }
%struct.nstime_t = type { i64, i32 }
%struct._address = type { i32, i32, ptr, ptr }
%struct.anon = type { i8, [3 x i8] }
%struct._xmpp_element_t = type { ptr, ptr, ptr, ptr, ptr, ptr, i32, i32, i8 }

@.str.103 = private unnamed_addr constant [5 x i8] c"XML \00", align 1
@hf_xmpp_xml_header_version = external global i32, align 4
@.str.104 = private unnamed_addr constant [4 x i8] c"1.0\00", align 1

; Function Attrs: null_pointer_is_valid sspstrong uwtable
define hidden void @xmpp_xml_header(ptr noundef %0, ptr noundef %1, ptr noundef %2, ptr noundef %3) #0 {
  %5 = alloca ptr, align 8
  %6 = alloca ptr, align 8
  %7 = alloca ptr, align 8
  %8 = alloca ptr, align 8
  store ptr %0, ptr %5, align 8
  store ptr %1, ptr %6, align 8
  store ptr %2, ptr %7, align 8
  store ptr %3, ptr %8, align 8
  %9 = load ptr, ptr %7, align 8
  %10 = getelementptr inbounds nuw %struct._packet_info, ptr %9, i32 0, i32 1
  %11 = load ptr, ptr %10, align 8
  call void @col_set_str(ptr noundef %11, i32 noundef 25, ptr noundef @.str.103)
  %12 = load ptr, ptr %5, align 8
  %13 = load i32, ptr @hf_xmpp_xml_header_version, align 4
  %14 = load ptr, ptr %6, align 8
  %15 = load ptr, ptr %8, align 8
  %16 = getelementptr inbounds nuw %struct._xmpp_element_t, ptr %15, i32 0, i32 6
  %17 = load i32, ptr %16, align 8
  %18 = load ptr, ptr %8, align 8
  %19 = getelementptr inbounds nuw %struct._xmpp_element_t, ptr %18, i32 0, i32 7
  %20 = load i32, ptr %19, align 4
  %21 = call ptr @proto_tree_add_string(ptr noundef %12, i32 noundef %13, ptr noundef %14, i32 noundef %17, i32 noundef %20, ptr noundef @.str.104)
  ret void
}