; Function Attrs: null_pointer_is_valid sspstrong uwtable
define hidden void @xmpp_xml_header(ptr noundef %0, ptr noundef %1, ptr noundef readonly captures(none) %2, ptr noundef readonly captures(none) %3) local_unnamed_addr #0 {
  %5 = getelementptr inbounds nuw i8, ptr %2, i64 8
  %6 = load ptr, ptr %5, align 8
  tail call void @col_set_str(ptr noundef %6, i32 noundef 25, ptr noundef nonnull @.str.103)
  %7 = load i32, ptr @hf_xmpp_xml_header_version, align 4
  %8 = getelementptr inbounds nuw i8, ptr %3, i64 48
  %9 = load i32, ptr %8, align 8
  %10 = getelementptr inbounds nuw i8, ptr %3, i64 52
  %11 = load i32, ptr %10, align 4
  %12 = tail call ptr @proto_tree_add_string(ptr noundef %0, i32 noundef %7, ptr noundef %1, i32 noundef %9, i32 noundef %11, ptr noundef nonnull @.str.104)
  ret void
}